; ModuleID = '11/879.c'
source_filename = "11/879.c"
target datalayout = "e-m:e-p270:32:32-p271:32:32-p272:64:64-i64:64-f80:128-n8:16:32:64-S128"
target triple = "x86_64-pc-linux-gnu"

@.str = private unnamed_addr constant [7 x i8] c"%d%d%d\00", align 1
@.str.1 = private unnamed_addr constant [4 x i8] c"%d\0A\00", align 1

; Function Attrs: noinline nounwind uwtable
define dso_local i32 @main() #0 {
  %1 = alloca i32, align 4
  %2 = alloca [12 x i32], align 16
  %3 = alloca i32, align 4
  %4 = alloca i32, align 4
  %5 = alloca i32, align 4
  %6 = alloca i32, align 4
  %7 = alloca i32, align 4
  store i32 0, i32* %1, align 4
  %8 = bitcast [12 x i32]* %2 to i8*
  call void @llvm.memset.p0i8.i64(i8* align 16 %8, i8 0, i64 48, i1 false)
  store i32 0, i32* %7, align 4
  %9 = call i32 (i8*, ...) @__isoc99_scanf(i8* getelementptr inbounds ([7 x i8], [7 x i8]* @.str, i64 0, i64 0), i32* %3, i32* %4, i32* %5)
  store i32 1, i32* %6, align 4
  br label %10

10:                                               ; preds = %85, %0
  %11 = load i32, i32* %6, align 4
  %12 = load i32, i32* %4, align 4
  %13 = icmp slt i32 %11, %12
  br i1 %13, label %14, label %88

14:                                               ; preds = %10
  %15 = load i32, i32* %6, align 4
  %16 = icmp eq i32 %15, 1
  br i1 %16, label %32, label %17

17:                                               ; preds = %14
  %18 = load i32, i32* %6, align 4
  %19 = icmp eq i32 %18, 3
  br i1 %19, label %32, label %20

20:                                               ; preds = %17
  %21 = load i32, i32* %6, align 4
  %22 = icmp eq i32 %21, 5
  br i1 %22, label %32, label %23

23:                                               ; preds = %20
  %24 = load i32, i32* %6, align 4
  %25 = icmp eq i32 %24, 7
  br i1 %25, label %32, label %26

26:                                               ; preds = %23
  %27 = load i32, i32* %6, align 4
  %28 = icmp eq i32 %27, 8
  br i1 %28, label %32, label %29

29:                                               ; preds = %26
  %30 = load i32, i32* %6, align 4
  %31 = icmp eq i32 %30, 10
  br i1 %31, label %32, label %42

32:                                               ; preds = %29, %26, %23, %20, %17, %14
  %33 = load i32, i32* %6, align 4
  %34 = sext i32 %33 to i64
  %35 = getelementptr inbounds [12 x i32], [12 x i32]* %2, i64 0, i64 %34
  store i32 31, i32* %35, align 4
  %36 = load i32, i32* %6, align 4
  %37 = sext i32 %36 to i64
  %38 = getelementptr inbounds [12 x i32], [12 x i32]* %2, i64 0, i64 %37
  %39 = load i32, i32* %38, align 4
  %40 = load i32, i32* %7, align 4
  %41 = add nsw i32 %40, %39
  store i32 %41, i32* %7, align 4
  br label %84

42:                                               ; preds = %29
  %43 = load i32, i32* %6, align 4
  %44 = icmp eq i32 %43, 4
  br i1 %44, label %54, label %45

45:                                               ; preds = %42
  %46 = load i32, i32* %6, align 4
  %47 = icmp eq i32 %46, 6
  br i1 %47, label %54, label %48

48:                                               ; preds = %45
  %49 = load i32, i32* %6, align 4
  %50 = icmp eq i32 %49, 9
  br i1 %50, label %54, label %51

51:                                               ; preds = %48
  %52 = load i32, i32* %6, align 4
  %53 = icmp eq i32 %52, 11
  br i1 %53, label %54, label %64

54:                                               ; preds = %51, %48, %45, %42
  %55 = load i32, i32* %6, align 4
  %56 = sext i32 %55 to i64
  %57 = getelementptr inbounds [12 x i32], [12 x i32]* %2, i64 0, i64 %56
  store i32 30, i32* %57, align 4
  %58 = load i32, i32* %6, align 4
  %59 = sext i32 %58 to i64
  %60 = getelementptr inbounds [12 x i32], [12 x i32]* %2, i64 0, i64 %59
  %61 = load i32, i32* %60, align 4
  %62 = load i32, i32* %7, align 4
  %63 = add nsw i32 %62, %61
  store i32 %63, i32* %7, align 4
  br label %83

64:                                               ; preds = %51
  %65 = load i32, i32* %3, align 4
  %66 = call i32 @run(i32 %65)
  %67 = icmp eq i32 %66, 1
  br i1 %67, label %68, label %72

68:                                               ; preds = %64
  %69 = load i32, i32* %6, align 4
  %70 = sext i32 %69 to i64
  %71 = getelementptr inbounds [12 x i32], [12 x i32]* %2, i64 0, i64 %70
  store i32 29, i32* %71, align 4
  br label %76

72:                                               ; preds = %64
  %73 = load i32, i32* %6, align 4
  %74 = sext i32 %73 to i64
  %75 = getelementptr inbounds [12 x i32], [12 x i32]* %2, i64 0, i64 %74
  store i32 28, i32* %75, align 4
  br label %76

76:                                               ; preds = %72, %68
  %77 = load i32, i32* %6, align 4
  %78 = sext i32 %77 to i64
  %79 = getelementptr inbounds [12 x i32], [12 x i32]* %2, i64 0, i64 %78
  %80 = load i32, i32* %79, align 4
  %81 = load i32, i32* %7, align 4
  %82 = add nsw i32 %81, %80
  store i32 %82, i32* %7, align 4
  br label %83

83:                                               ; preds = %76, %54
  br label %84

84:                                               ; preds = %83, %32
  br label %85

85:                                               ; preds = %84
  %86 = load i32, i32* %6, align 4
  %87 = add nsw i32 %86, 1
  store i32 %87, i32* %6, align 4
  br label %10

88:                                               ; preds = %10
  %89 = load i32, i32* %5, align 4
  %90 = load i32, i32* %7, align 4
  %91 = add nsw i32 %90, %89
  store i32 %91, i32* %7, align 4
  %92 = load i32, i32* %7, align 4
  %93 = call i32 (i8*, ...) @printf(i8* getelementptr inbounds ([4 x i8], [4 x i8]* @.str.1, i64 0, i64 0), i32 %92)
  %94 = load i32, i32* %1, align 4
  ret i32 %94
}

; Function Attrs: argmemonly nounwind willreturn
declare void @llvm.memset.p0i8.i64(i8* nocapture writeonly, i8, i64, i1 immarg) #1

declare dso_local i32 @__isoc99_scanf(i8*, ...) #2

; Function Attrs: noinline nounwind uwtable
define dso_local i32 @run(i32 %0) #0 {
  %2 = alloca i32, align 4
  %3 = alloca i32, align 4
  store i32 %0, i32* %2, align 4
  %4 = load i32, i32* %2, align 4
  %5 = srem i32 %4, 400
  %6 = icmp eq i32 %5, 0
  br i1 %6, label %15, label %7

7:                                                ; preds = %1
  %8 = load i32, i32* %2, align 4
  %9 = srem i32 %8, 100
  %10 = icmp ne i32 %9, 0
  br i1 %10, label %11, label %16

11:                                               ; preds = %7
  %12 = load i32, i32* %2, align 4
  %13 = srem i32 %12, 4
  %14 = icmp eq i32 %13, 0
  br i1 %14, label %15, label %16

15:                                               ; preds = %11, %1
  store i32 1, i32* %3, align 4
  br label %16

16:                                               ; preds = %15, %11, %7
  %17 = load i32, i32* %3, align 4
  ret i32 %17
}

declare dso_local i32 @printf(i8*, ...) #2


!llvm.module.flags = !{!0}
!llvm.ident = !{!1}

!0 = !{i32 1, !"wchar_size", i32 4}
!1 = !{!"clang version 10.0.0-4ubuntu1 "}
